; ModuleID = '27/406.c'
source_filename = "27/406.c"
target datalayout = "e-m:e-p270:32:32-p271:32:32-p272:64:64-i64:64-f80:128-n8:16:32:64-S128"
target triple = "x86_64-pc-linux-gnu"

@.str = private unnamed_addr constant [3 x i8] c"%d\00", align 1
@.str.1 = private unnamed_addr constant [12 x i8] c"%lf %lf %lf\00", align 1
@.str.2 = private unnamed_addr constant [19 x i8] c"x1=%.5lf;x2=%.5lf\0A\00", align 1
@.str.3 = private unnamed_addr constant [13 x i8] c"x1=x2=%.5lf\0A\00", align 1
@.str.4 = private unnamed_addr constant [33 x i8] c"x1=%.5lf+%.5lfi;x2=%.5lf-%.5lfi\0A\00", align 1

; Function Attrs: noinline nounwind uwtable
define dso_local i32 @main() #0 {
  %1 = alloca i32, align 4
  %2 = alloca i32, align 4
  %3 = alloca i32, align 4
  %4 = alloca double, align 8
  %5 = alloca double, align 8
  %6 = alloca double, align 8
  %7 = alloca double, align 8
  %8 = alloca double, align 8
  %9 = alloca double, align 8
  %10 = alloca double, align 8
  store i32 0, i32* %1, align 4
  %11 = call i32 (i8*, ...) @__isoc99_scanf(i8* getelementptr inbounds ([3 x i8], [3 x i8]* @.str, i64 0, i64 0), i32* %2)
  store i32 0, i32* %3, align 4
  br label %12

12:                                               ; preds = %118, %0
  %13 = load i32, i32* %3, align 4
  %14 = load i32, i32* %2, align 4
  %15 = icmp slt i32 %13, %14
  br i1 %15, label %16, label %121

16:                                               ; preds = %12
  %17 = call i32 (i8*, ...) @__isoc99_scanf(i8* getelementptr inbounds ([12 x i8], [12 x i8]* @.str.1, i64 0, i64 0), double* %4, double* %5, double* %6)
  %18 = load double, double* %5, align 8
  %19 = load double, double* %5, align 8
  %20 = fmul double %18, %19
  %21 = load double, double* %4, align 8
  %22 = fmul double 4.000000e+00, %21
  %23 = load double, double* %6, align 8
  %24 = fmul double %22, %23
  %25 = fsub double %20, %24
  %26 = fcmp ogt double %25, 0.000000e+00
  br i1 %26, label %27, label %63

27:                                               ; preds = %16
  %28 = load double, double* %5, align 8
  %29 = fneg double %28
  %30 = load double, double* %5, align 8
  %31 = load double, double* %5, align 8
  %32 = fmul double %30, %31
  %33 = load double, double* %4, align 8
  %34 = fmul double 4.000000e+00, %33
  %35 = load double, double* %6, align 8
  %36 = fmul double %34, %35
  %37 = fsub double %32, %36
  %38 = call double @sqrt(double %37) #4
  %39 = fadd double %29, %38
  %40 = load double, double* %4, align 8
  %41 = fmul double 2.000000e+00, %40
  %42 = fdiv double %39, %41
  store double %42, double* %7, align 8
  %43 = load double, double* %5, align 8
  %44 = fneg double %43
  %45 = load double, double* %5, align 8
  %46 = load double, double* %5, align 8
  %47 = fmul double %45, %46
  %48 = load double, double* %4, align 8
  %49 = fmul double 4.000000e+00, %48
  %50 = load double, double* %6, align 8
  %51 = fmul double %49, %50
  %52 = fsub double %47, %51
  %53 = call double @sqrt(double %52) #4
  %54 = fsub double %44, %53
  %55 = load double, double* %4, align 8
  %56 = fmul double 2.000000e+00, %55
  %57 = fdiv double %54, %56
  store double %57, double* %8, align 8
  %58 = load double, double* %7, align 8
  %59 = fadd double %58, 0x3EB0C6F7A0B5ED8D
  %60 = load double, double* %8, align 8
  %61 = fadd double %60, 0x3EB0C6F7A0B5ED8D
  %62 = call i32 (i8*, ...) @printf(i8* getelementptr inbounds ([19 x i8], [19 x i8]* @.str.2, i64 0, i64 0), double %59, double %61)
  br label %117

63:                                               ; preds = %16
  %64 = load double, double* %5, align 8
  %65 = load double, double* %5, align 8
  %66 = fmul double %64, %65
  %67 = load double, double* %4, align 8
  %68 = fmul double 4.000000e+00, %67
  %69 = load double, double* %6, align 8
  %70 = fmul double %68, %69
  %71 = fsub double %66, %70
  %72 = call double @llvm.fabs.f64(double %71)
  %73 = fcmp olt double %72, 1.000000e-08
  br i1 %73, label %74, label %83

74:                                               ; preds = %63
  %75 = load double, double* %5, align 8
  %76 = fneg double %75
  %77 = load double, double* %4, align 8
  %78 = fmul double 2.000000e+00, %77
  %79 = fdiv double %76, %78
  store double %79, double* %7, align 8
  %80 = load double, double* %7, align 8
  %81 = fadd double %80, 0x3EB0C6F7A0B5ED8D
  %82 = call i32 (i8*, ...) @printf(i8* getelementptr inbounds ([13 x i8], [13 x i8]* @.str.3, i64 0, i64 0), double %81)
  br label %116

83:                                               ; preds = %63
  %84 = load double, double* %5, align 8
  %85 = fneg double %84
  %86 = load double, double* %4, align 8
  %87 = fmul double 2.000000e+00, %86
  %88 = fdiv double %85, %87
  store double %88, double* %9, align 8
  %89 = load double, double* %4, align 8
  %90 = fmul double 4.000000e+00, %89
  %91 = load double, double* %6, align 8
  %92 = fmul double %90, %91
  %93 = load double, double* %5, align 8
  %94 = load double, double* %5, align 8
  %95 = fmul double %93, %94
  %96 = fsub double %92, %95
  %97 = call double @sqrt(double %96) #4
  %98 = load double, double* %4, align 8
  %99 = fmul double 2.000000e+00, %98
  %100 = fdiv double %97, %99
  store double %100, double* %10, align 8
  %101 = load double, double* %9, align 8
  %102 = call double @llvm.fabs.f64(double %101)
  %103 = fcmp olt double %102, 1.000000e-08
  br i1 %103, label %104, label %105

104:                                              ; preds = %83
  store double 0.000000e+00, double* %9, align 8
  br label %105

105:                                              ; preds = %104, %83
  %106 = load double, double* %10, align 8
  %107 = call double @llvm.fabs.f64(double %106)
  %108 = fcmp olt double %107, 1.000000e-08
  br i1 %108, label %109, label %110

109:                                              ; preds = %105
  store double 0.000000e+00, double* %10, align 8
  br label %110

110:                                              ; preds = %109, %105
  %111 = load double, double* %9, align 8
  %112 = load double, double* %10, align 8
  %113 = load double, double* %9, align 8
  %114 = load double, double* %10, align 8
  %115 = call i32 (i8*, ...) @printf(i8* getelementptr inbounds ([33 x i8], [33 x i8]* @.str.4, i64 0, i64 0), double %111, double %112, double %113, double %114)
  br label %116

116:                                              ; preds = %110, %74
  br label %117

117:                                              ; preds = %116, %27
  br label %118

118:                                              ; preds = %117
  %119 = load i32, i32* %3, align 4
  %120 = add nsw i32 %119, 1
  store i32 %120, i32* %3, align 4
  br label %12

121:                                              ; preds = %12
  ret i32 0
}

declare dso_local i32 @__isoc99_scanf(i8*, ...) #1

; Function Attrs: nounwind
declare dso_local double @sqrt(double) #2

declare dso_local i32 @printf(i8*, ...) #1

; Function Attrs: nounwind readnone speculatable willreturn
declare double @llvm.fabs.f64(double) #3


!llvm.module.flags = !{!0}
!llvm.ident = !{!1}

!0 = !{i32 1, !"wchar_size", i32 4}
!1 = !{!"clang version 10.0.0-4ubuntu1 "}
